#include <math.h>
#include <stdio.h>
#include <stdlib.h>
#include <string.h>

int main()
{
	int n,i,j,m;
	char c[800];
	scanf("%d\n",&n);
	for(i=1;i<=n;i++)
	{
		gets(c);
		m=strlen(c);
		if((c[0]>=65&&c[0]<=90)||(c[0]>=97&&c[0]<=122)||(c[0]==95))
		{
			for(j=0;j<=m-1;j++)
			{
				if(c[j]==' ')
				{
					printf("0\n");break;
				}
				if(c[j]<48)
				{
					printf("0\n");break;
				}
				if(c[j]>57&&c[j]<65)
				{
					printf("0\n");break;
				}
				if(c[j]>91&&c[j]<95)
				{
					printf("0\n");break;
				}
				if(c[j]>95&&c[j]<97)
				{
					printf("0\n");break;
				}
				if(c[j]>122)
				{
					printf("0\n");break;
				}
			}
			if(j==m)
				printf("1\n");
		}
		else
			printf("0\n");
	}
	return 0;
}
