; ModuleID = '58/737.c'
source_filename = "58/737.c"
target datalayout = "e-m:e-p270:32:32-p271:32:32-p272:64:64-i64:64-f80:128-n8:16:32:64-S128"
target triple = "x86_64-pc-linux-gnu"

@.str = private unnamed_addr constant [4 x i8] c"%d\0A\00", align 1
@.str.1 = private unnamed_addr constant [3 x i8] c"0\0A\00", align 1
@.str.2 = private unnamed_addr constant [3 x i8] c"1\0A\00", align 1

; Function Attrs: noinline nounwind uwtable
define dso_local i32 @main() #0 {
  %1 = alloca i32, align 4
  %2 = alloca i32, align 4
  %3 = alloca i32, align 4
  %4 = alloca i32, align 4
  %5 = alloca i32, align 4
  %6 = alloca [800 x i8], align 16
  store i32 0, i32* %1, align 4
  %7 = call i32 (i8*, ...) @__isoc99_scanf(i8* getelementptr inbounds ([4 x i8], [4 x i8]* @.str, i64 0, i64 0), i32* %2)
  store i32 1, i32* %3, align 4
  br label %8

8:                                                ; preds = %137, %0
  %9 = load i32, i32* %3, align 4
  %10 = load i32, i32* %2, align 4
  %11 = icmp sle i32 %9, %10
  br i1 %11, label %12, label %140

12:                                               ; preds = %8
  %13 = getelementptr inbounds [800 x i8], [800 x i8]* %6, i64 0, i64 0
  %14 = call i32 (i8*, ...) bitcast (i32 (...)* @gets to i32 (i8*, ...)*)(i8* %13)
  %15 = getelementptr inbounds [800 x i8], [800 x i8]* %6, i64 0, i64 0
  %16 = call i64 @strlen(i8* %15) #3
  %17 = trunc i64 %16 to i32
  store i32 %17, i32* %5, align 4
  %18 = getelementptr inbounds [800 x i8], [800 x i8]* %6, i64 0, i64 0
  %19 = load i8, i8* %18, align 16
  %20 = sext i8 %19 to i32
  %21 = icmp sge i32 %20, 65
  br i1 %21, label %22, label %27

22:                                               ; preds = %12
  %23 = getelementptr inbounds [800 x i8], [800 x i8]* %6, i64 0, i64 0
  %24 = load i8, i8* %23, align 16
  %25 = sext i8 %24 to i32
  %26 = icmp sle i32 %25, 90
  br i1 %26, label %42, label %27

27:                                               ; preds = %22, %12
  %28 = getelementptr inbounds [800 x i8], [800 x i8]* %6, i64 0, i64 0
  %29 = load i8, i8* %28, align 16
  %30 = sext i8 %29 to i32
  %31 = icmp sge i32 %30, 97
  br i1 %31, label %32, label %37

32:                                               ; preds = %27
  %33 = getelementptr inbounds [800 x i8], [800 x i8]* %6, i64 0, i64 0
  %34 = load i8, i8* %33, align 16
  %35 = sext i8 %34 to i32
  %36 = icmp sle i32 %35, 122
  br i1 %36, label %42, label %37

37:                                               ; preds = %32, %27
  %38 = getelementptr inbounds [800 x i8], [800 x i8]* %6, i64 0, i64 0
  %39 = load i8, i8* %38, align 16
  %40 = sext i8 %39 to i32
  %41 = icmp eq i32 %40, 95
  br i1 %41, label %42, label %134

42:                                               ; preds = %37, %32, %22
  store i32 0, i32* %4, align 4
  br label %43

43:                                               ; preds = %124, %42
  %44 = load i32, i32* %4, align 4
  %45 = load i32, i32* %5, align 4
  %46 = sub nsw i32 %45, 1
  %47 = icmp sle i32 %44, %46
  br i1 %47, label %48, label %127

48:                                               ; preds = %43
  %49 = load i32, i32* %4, align 4
  %50 = sext i32 %49 to i64
  %51 = getelementptr inbounds [800 x i8], [800 x i8]* %6, i64 0, i64 %50
  %52 = load i8, i8* %51, align 1
  %53 = sext i8 %52 to i32
  %54 = icmp eq i32 %53, 32
  br i1 %54, label %55, label %57

55:                                               ; preds = %48
  %56 = call i32 (i8*, ...) @printf(i8* getelementptr inbounds ([3 x i8], [3 x i8]* @.str.1, i64 0, i64 0))
  br label %127

57:                                               ; preds = %48
  %58 = load i32, i32* %4, align 4
  %59 = sext i32 %58 to i64
  %60 = getelementptr inbounds [800 x i8], [800 x i8]* %6, i64 0, i64 %59
  %61 = load i8, i8* %60, align 1
  %62 = sext i8 %61 to i32
  %63 = icmp slt i32 %62, 48
  br i1 %63, label %64, label %66

64:                                               ; preds = %57
  %65 = call i32 (i8*, ...) @printf(i8* getelementptr inbounds ([3 x i8], [3 x i8]* @.str.1, i64 0, i64 0))
  br label %127

66:                                               ; preds = %57
  %67 = load i32, i32* %4, align 4
  %68 = sext i32 %67 to i64
  %69 = getelementptr inbounds [800 x i8], [800 x i8]* %6, i64 0, i64 %68
  %70 = load i8, i8* %69, align 1
  %71 = sext i8 %70 to i32
  %72 = icmp sgt i32 %71, 57
  br i1 %72, label %73, label %82

73:                                               ; preds = %66
  %74 = load i32, i32* %4, align 4
  %75 = sext i32 %74 to i64
  %76 = getelementptr inbounds [800 x i8], [800 x i8]* %6, i64 0, i64 %75
  %77 = load i8, i8* %76, align 1
  %78 = sext i8 %77 to i32
  %79 = icmp slt i32 %78, 65
  br i1 %79, label %80, label %82

80:                                               ; preds = %73
  %81 = call i32 (i8*, ...) @printf(i8* getelementptr inbounds ([3 x i8], [3 x i8]* @.str.1, i64 0, i64 0))
  br label %127

82:                                               ; preds = %73, %66
  %83 = load i32, i32* %4, align 4
  %84 = sext i32 %83 to i64
  %85 = getelementptr inbounds [800 x i8], [800 x i8]* %6, i64 0, i64 %84
  %86 = load i8, i8* %85, align 1
  %87 = sext i8 %86 to i32
  %88 = icmp sgt i32 %87, 91
  br i1 %88, label %89, label %98

89:                                               ; preds = %82
  %90 = load i32, i32* %4, align 4
  %91 = sext i32 %90 to i64
  %92 = getelementptr inbounds [800 x i8], [800 x i8]* %6, i64 0, i64 %91
  %93 = load i8, i8* %92, align 1
  %94 = sext i8 %93 to i32
  %95 = icmp slt i32 %94, 95
  br i1 %95, label %96, label %98

96:                                               ; preds = %89
  %97 = call i32 (i8*, ...) @printf(i8* getelementptr inbounds ([3 x i8], [3 x i8]* @.str.1, i64 0, i64 0))
  br label %127

98:                                               ; preds = %89, %82
  %99 = load i32, i32* %4, align 4
  %100 = sext i32 %99 to i64
  %101 = getelementptr inbounds [800 x i8], [800 x i8]* %6, i64 0, i64 %100
  %102 = load i8, i8* %101, align 1
  %103 = sext i8 %102 to i32
  %104 = icmp sgt i32 %103, 95
  br i1 %104, label %105, label %114

105:                                              ; preds = %98
  %106 = load i32, i32* %4, align 4
  %107 = sext i32 %106 to i64
  %108 = getelementptr inbounds [800 x i8], [800 x i8]* %6, i64 0, i64 %107
  %109 = load i8, i8* %108, align 1
  %110 = sext i8 %109 to i32
  %111 = icmp slt i32 %110, 97
  br i1 %111, label %112, label %114

112:                                              ; preds = %105
  %113 = call i32 (i8*, ...) @printf(i8* getelementptr inbounds ([3 x i8], [3 x i8]* @.str.1, i64 0, i64 0))
  br label %127

114:                                              ; preds = %105, %98
  %115 = load i32, i32* %4, align 4
  %116 = sext i32 %115 to i64
  %117 = getelementptr inbounds [800 x i8], [800 x i8]* %6, i64 0, i64 %116
  %118 = load i8, i8* %117, align 1
  %119 = sext i8 %118 to i32
  %120 = icmp sgt i32 %119, 122
  br i1 %120, label %121, label %123

121:                                              ; preds = %114
  %122 = call i32 (i8*, ...) @printf(i8* getelementptr inbounds ([3 x i8], [3 x i8]* @.str.1, i64 0, i64 0))
  br label %127

123:                                              ; preds = %114
  br label %124

124:                                              ; preds = %123
  %125 = load i32, i32* %4, align 4
  %126 = add nsw i32 %125, 1
  store i32 %126, i32* %4, align 4
  br label %43

127:                                              ; preds = %121, %112, %96, %80, %64, %55, %43
  %128 = load i32, i32* %4, align 4
  %129 = load i32, i32* %5, align 4
  %130 = icmp eq i32 %128, %129
  br i1 %130, label %131, label %133

131:                                              ; preds = %127
  %132 = call i32 (i8*, ...) @printf(i8* getelementptr inbounds ([3 x i8], [3 x i8]* @.str.2, i64 0, i64 0))
  br label %133

133:                                              ; preds = %131, %127
  br label %136

134:                                              ; preds = %37
  %135 = call i32 (i8*, ...) @printf(i8* getelementptr inbounds ([3 x i8], [3 x i8]* @.str.1, i64 0, i64 0))
  br label %136

136:                                              ; preds = %134, %133
  br label %137

137:                                              ; preds = %136
  %138 = load i32, i32* %3, align 4
  %139 = add nsw i32 %138, 1
  store i32 %139, i32* %3, align 4
  br label %8

140:                                              ; preds = %8
  ret i32 0
}

declare dso_local i32 @__isoc99_scanf(i8*, ...) #1

declare dso_local i32 @gets(...) #1

; Function Attrs: nounwind readonly
declare dso_local i64 @strlen(i8*) #2

declare dso_local i32 @printf(i8*, ...) #1


!llvm.module.flags = !{!0}
!llvm.ident = !{!1}

!0 = !{i32 1, !"wchar_size", i32 4}
!1 = !{!"clang version 10.0.0-4ubuntu1 "}
